target datalayout = "e-m:e-p270:32:32-p271:32:32-p272:64:64-i64:64-i128:128-f80:128-n8:16:32:64-S128"
target triple = "x86_64-pc-linux-gnu"

%struct.aom_codec_iface = type { ptr, i32, i64, ptr, ptr, ptr, %struct.aom_codec_dec_iface, %struct.aom_codec_enc_iface, ptr }
%struct.aom_codec_dec_iface = type { ptr, ptr, ptr, ptr, ptr }
%struct.aom_codec_enc_iface = type { i32, ptr, ptr, ptr, ptr, ptr, ptr }
%struct.aom_codec_ctx = type { ptr, ptr, i32, ptr, i64, %union.anon, ptr }
%union.anon = type { ptr }
%struct.aom_codec_stream_info = type { i32, i32, i32, i32, i32, i32 }

; Function Attrs: nounwind uwtable
define internal ptr @get_alg_priv(ptr noundef %0) #0 {
  %2 = alloca ptr, align 8
  store ptr %0, ptr %2, align 8
  %3 = load ptr, ptr %2, align 8
  %4 = getelementptr inbounds nuw %struct.aom_codec_ctx, ptr %3, i32 0, i32 6
  %5 = load ptr, ptr %4, align 8
  ret ptr %5
}

; Function Attrs: nounwind uwtable
define hidden i32 @aom_codec_get_stream_info(ptr noundef %0, ptr noundef %1) #0 {
  %3 = alloca ptr, align 8
  %4 = alloca ptr, align 8
  %5 = alloca i32, align 4
  store ptr %0, ptr %3, align 8
  store ptr %1, ptr %4, align 8
  %6 = load ptr, ptr %3, align 8
  %7 = icmp ne ptr %6, null
  br i1 %7, label %8, label %11

8:                                                ; preds = %2
  %9 = load ptr, ptr %4, align 8
  %10 = icmp ne ptr %9, null
  br i1 %10, label %12, label %11

11:                                               ; preds = %8, %2
  store i32 8, ptr %5, align 4
  br label %39

12:                                               ; preds = %8
  %13 = load ptr, ptr %3, align 8
  %14 = getelementptr inbounds nuw %struct.aom_codec_ctx, ptr %13, i32 0, i32 1
  %15 = load ptr, ptr %14, align 8
  %16 = icmp ne ptr %15, null
  br i1 %16, label %17, label %22

17:                                               ; preds = %12
  %18 = load ptr, ptr %3, align 8
  %19 = getelementptr inbounds nuw %struct.aom_codec_ctx, ptr %18, i32 0, i32 6
  %20 = load ptr, ptr %19, align 8
  %21 = icmp ne ptr %20, null
  br i1 %21, label %23, label %22

22:                                               ; preds = %17, %12
  store i32 1, ptr %5, align 4
  br label %38

23:                                               ; preds = %17
  %24 = load ptr, ptr %4, align 8
  %25 = getelementptr inbounds nuw %struct.aom_codec_stream_info, ptr %24, i32 0, i32 0
  store i32 0, ptr %25, align 4
  %26 = load ptr, ptr %4, align 8
  %27 = getelementptr inbounds nuw %struct.aom_codec_stream_info, ptr %26, i32 0, i32 1
  store i32 0, ptr %27, align 4
  %28 = load ptr, ptr %3, align 8
  %29 = getelementptr inbounds nuw %struct.aom_codec_ctx, ptr %28, i32 0, i32 1
  %30 = load ptr, ptr %29, align 8
  %31 = getelementptr inbounds nuw %struct.aom_codec_iface, ptr %30, i32 0, i32 6
  %32 = getelementptr inbounds nuw %struct.aom_codec_dec_iface, ptr %31, i32 0, i32 1
  %33 = load ptr, ptr %32, align 8
  %34 = load ptr, ptr %3, align 8
  %35 = call ptr @get_alg_priv(ptr noundef %34)
  %36 = load ptr, ptr %4, align 8
  %37 = call i32 %33(ptr noundef %35, ptr noundef %36)
  store i32 %37, ptr %5, align 4
  br label %38

38:                                               ; preds = %23, %22
  br label %39

39:                                               ; preds = %38, %11
  %40 = load ptr, ptr %3, align 8
  %41 = icmp ne ptr %40, null
  br i1 %41, label %42, label %46

42:                                               ; preds = %39
  %43 = load i32, ptr %5, align 4
  %44 = load ptr, ptr %3, align 8
  %45 = getelementptr inbounds nuw %struct.aom_codec_ctx, ptr %44, i32 0, i32 2
  store i32 %43, ptr %45, align 8
  br label %48

46:                                               ; preds = %39
  %47 = load i32, ptr %5, align 4
  br label %48

48:                                               ; preds = %46, %42
  %49 = phi i32 [ %43, %42 ], [ %47, %46 ]
  ret i32 %49
}