; Function Attrs: nounwind uwtable
define hidden i32 @aom_codec_get_stream_info(ptr noundef %0, ptr noundef %1) local_unnamed_addr #0 {
  %3 = icmp ne ptr %0, null
  %4 = icmp ne ptr %1, null
  %or.cond = and i1 %3, %4
  br i1 %or.cond, label %5, label %17

5:                                                ; preds = %2
  %6 = getelementptr inbounds nuw i8, ptr %0, i64 8
  %7 = load ptr, ptr %6, align 8
  %.not = icmp eq ptr %7, null
  br i1 %.not, label %.thread, label %8

8:                                                ; preds = %5
  %9 = getelementptr inbounds nuw i8, ptr %0, i64 48
  %10 = load ptr, ptr %9, align 8
  %.not15 = icmp eq ptr %10, null
  br i1 %.not15, label %.thread, label %11

11:                                               ; preds = %8
  store i32 0, ptr %1, align 4
  %12 = getelementptr inbounds nuw i8, ptr %1, i64 4
  store i32 0, ptr %12, align 4
  %13 = load ptr, ptr %6, align 8
  %14 = getelementptr inbounds i8, ptr %13, i64 56
  %15 = load ptr, ptr %14, align 8
  %.val = load ptr, ptr %9, align 8
  %16 = tail call i32 %15(ptr noundef %.val, ptr noundef nonnull %1) #3
  br label %.thread

17:                                               ; preds = %2
  br i1 %3, label %.thread, label %19

.thread:                                          ; preds = %11, %8, %5, %17
  %.017 = phi i32 [ 8, %17 ], [ 1, %5 ], [ 1, %8 ], [ %16, %11 ]
  %18 = getelementptr inbounds nuw i8, ptr %0, i64 16
  store i32 %.017, ptr %18, align 8
  br label %19

19:                                               ; preds = %17, %.thread
  %.018 = phi i32 [ 8, %17 ], [ %.017, %.thread ]
  ret i32 %.018
}